; Function Attrs: nounwind uwtable
define internal noundef i32 @_foreach_ret_list_hostname_set(ptr noundef captures(none) %0, ptr noundef %1) #1 {
  %3 = getelementptr inbounds nuw i8, ptr %0, i64 8
  %4 = load ptr, ptr %3, align 8
  %.not = icmp eq ptr %4, null
  br i1 %.not, label %5, label %7

5:                                                ; preds = %2
  %6 = tail call ptr @xstrdup(ptr noundef %1) #19
  store ptr %6, ptr %3, align 8
  br label %7

7:                                                ; preds = %5, %2
  ret i32 0
}